target datalayout = "e-m:e-p270:32:32-p271:32:32-p272:64:64-i64:64-i128:128-f80:128-n8:16:32:64-S128"
target triple = "x86_64-pc-linux-gnu"

%struct.freelist = type { ptr, ptr, i32 }
%struct.Edge = type { double, double, double, [2 x ptr], [2 x ptr] }
%struct.Site = type { %struct.pointf_s, i64, i32 }
%struct.pointf_s = type { double, double }

@efl = internal global %struct.freelist zeroinitializer, align 8

; Function Attrs: nounwind uwtable
define ptr @gvbisect(ptr noundef %0, ptr noundef %1) #0 {
  %3 = alloca ptr, align 8
  %4 = alloca ptr, align 8
  %5 = alloca double, align 8
  %6 = alloca double, align 8
  %7 = alloca double, align 8
  %8 = alloca double, align 8
  %9 = alloca ptr, align 8
  store ptr %0, ptr %3, align 8, !tbaa !3
  store ptr %1, ptr %4, align 8, !tbaa !3
  call void @llvm.lifetime.start.p0(i64 8, ptr %5) #4
  call void @llvm.lifetime.start.p0(i64 8, ptr %6) #4
  call void @llvm.lifetime.start.p0(i64 8, ptr %7) #4
  call void @llvm.lifetime.start.p0(i64 8, ptr %8) #4
  call void @llvm.lifetime.start.p0(i64 8, ptr %9) #4
  %10 = call ptr @getfree(ptr noundef @efl)
  store ptr %10, ptr %9, align 8, !tbaa !8
  %11 = load ptr, ptr %3, align 8, !tbaa !3
  %12 = load ptr, ptr %9, align 8, !tbaa !8
  %13 = getelementptr inbounds nuw %struct.Edge, ptr %12, i32 0, i32 4
  %14 = getelementptr inbounds [2 x ptr], ptr %13, i64 0, i64 0
  store ptr %11, ptr %14, align 8, !tbaa !3
  %15 = load ptr, ptr %4, align 8, !tbaa !3
  %16 = load ptr, ptr %9, align 8, !tbaa !8
  %17 = getelementptr inbounds nuw %struct.Edge, ptr %16, i32 0, i32 4
  %18 = getelementptr inbounds [2 x ptr], ptr %17, i64 0, i64 1
  store ptr %15, ptr %18, align 8, !tbaa !3
  %19 = load ptr, ptr %3, align 8, !tbaa !3
  call void @ref(ptr noundef %19)
  %20 = load ptr, ptr %4, align 8, !tbaa !3
  call void @ref(ptr noundef %20)
  %21 = load ptr, ptr %9, align 8, !tbaa !8
  %22 = getelementptr inbounds nuw %struct.Edge, ptr %21, i32 0, i32 3
  %23 = getelementptr inbounds [2 x ptr], ptr %22, i64 0, i64 0
  store ptr null, ptr %23, align 8, !tbaa !3
  %24 = load ptr, ptr %9, align 8, !tbaa !8
  %25 = getelementptr inbounds nuw %struct.Edge, ptr %24, i32 0, i32 3
  %26 = getelementptr inbounds [2 x ptr], ptr %25, i64 0, i64 1
  store ptr null, ptr %26, align 8, !tbaa !3
  %27 = load ptr, ptr %4, align 8, !tbaa !3
  %28 = getelementptr inbounds nuw %struct.Site, ptr %27, i32 0, i32 0
  %29 = getelementptr inbounds nuw %struct.pointf_s, ptr %28, i32 0, i32 0
  %30 = load double, ptr %29, align 8, !tbaa !10
  %31 = load ptr, ptr %3, align 8, !tbaa !3
  %32 = getelementptr inbounds nuw %struct.Site, ptr %31, i32 0, i32 0
  %33 = getelementptr inbounds nuw %struct.pointf_s, ptr %32, i32 0, i32 0
  %34 = load double, ptr %33, align 8, !tbaa !10
  %35 = fsub double %30, %34
  store double %35, ptr %5, align 8, !tbaa !16
  %36 = load ptr, ptr %4, align 8, !tbaa !3
  %37 = getelementptr inbounds nuw %struct.Site, ptr %36, i32 0, i32 0
  %38 = getelementptr inbounds nuw %struct.pointf_s, ptr %37, i32 0, i32 1
  %39 = load double, ptr %38, align 8, !tbaa !17
  %40 = load ptr, ptr %3, align 8, !tbaa !3
  %41 = getelementptr inbounds nuw %struct.Site, ptr %40, i32 0, i32 0
  %42 = getelementptr inbounds nuw %struct.pointf_s, ptr %41, i32 0, i32 1
  %43 = load double, ptr %42, align 8, !tbaa !17
  %44 = fsub double %39, %43
  store double %44, ptr %6, align 8, !tbaa !16
  %45 = load double, ptr %5, align 8, !tbaa !16
  %46 = call double @llvm.fabs.f64(double %45)
  store double %46, ptr %7, align 8, !tbaa !16
  %47 = load double, ptr %6, align 8, !tbaa !16
  %48 = call double @llvm.fabs.f64(double %47)
  store double %48, ptr %8, align 8, !tbaa !16
  %49 = load ptr, ptr %3, align 8, !tbaa !3
  %50 = getelementptr inbounds nuw %struct.Site, ptr %49, i32 0, i32 0
  %51 = getelementptr inbounds nuw %struct.pointf_s, ptr %50, i32 0, i32 0
  %52 = load double, ptr %51, align 8, !tbaa !10
  %53 = load double, ptr %5, align 8, !tbaa !16
  %54 = load ptr, ptr %3, align 8, !tbaa !3
  %55 = getelementptr inbounds nuw %struct.Site, ptr %54, i32 0, i32 0
  %56 = getelementptr inbounds nuw %struct.pointf_s, ptr %55, i32 0, i32 1
  %57 = load double, ptr %56, align 8, !tbaa !17
  %58 = load double, ptr %6, align 8, !tbaa !16
  %59 = fmul double %57, %58
  %60 = call double @llvm.fmuladd.f64(double %52, double %53, double %59)
  %61 = load double, ptr %5, align 8, !tbaa !16
  %62 = load double, ptr %5, align 8, !tbaa !16
  %63 = load double, ptr %6, align 8, !tbaa !16
  %64 = load double, ptr %6, align 8, !tbaa !16
  %65 = fmul double %63, %64
  %66 = call double @llvm.fmuladd.f64(double %61, double %62, double %65)
  %67 = call double @llvm.fmuladd.f64(double %66, double 5.000000e-01, double %60)
  %68 = load ptr, ptr %9, align 8, !tbaa !8
  %69 = getelementptr inbounds nuw %struct.Edge, ptr %68, i32 0, i32 2
  store double %67, ptr %69, align 8, !tbaa !18
  %70 = load double, ptr %7, align 8, !tbaa !16
  %71 = load double, ptr %8, align 8, !tbaa !16
  %72 = fcmp ogt double %70, %71
  br i1 %72, label %73, label %86

73:                                               ; preds = %2
  %74 = load ptr, ptr %9, align 8, !tbaa !8
  %75 = getelementptr inbounds nuw %struct.Edge, ptr %74, i32 0, i32 0
  store double 1.000000e+00, ptr %75, align 8, !tbaa !20
  %76 = load double, ptr %6, align 8, !tbaa !16
  %77 = load double, ptr %5, align 8, !tbaa !16
  %78 = fdiv double %76, %77
  %79 = load ptr, ptr %9, align 8, !tbaa !8
  %80 = getelementptr inbounds nuw %struct.Edge, ptr %79, i32 0, i32 1
  store double %78, ptr %80, align 8, !tbaa !21
  %81 = load double, ptr %5, align 8, !tbaa !16
  %82 = load ptr, ptr %9, align 8, !tbaa !8
  %83 = getelementptr inbounds nuw %struct.Edge, ptr %82, i32 0, i32 2
  %84 = load double, ptr %83, align 8, !tbaa !18
  %85 = fdiv double %84, %81
  store double %85, ptr %83, align 8, !tbaa !18
  br label %99

86:                                               ; preds = %2
  %87 = load ptr, ptr %9, align 8, !tbaa !8
  %88 = getelementptr inbounds nuw %struct.Edge, ptr %87, i32 0, i32 1
  store double 1.000000e+00, ptr %88, align 8, !tbaa !21
  %89 = load double, ptr %5, align 8, !tbaa !16
  %90 = load double, ptr %6, align 8, !tbaa !16
  %91 = fdiv double %89, %90
  %92 = load ptr, ptr %9, align 8, !tbaa !8
  %93 = getelementptr inbounds nuw %struct.Edge, ptr %92, i32 0, i32 0
  store double %91, ptr %93, align 8, !tbaa !20
  %94 = load double, ptr %6, align 8, !tbaa !16
  %95 = load ptr, ptr %9, align 8, !tbaa !8
  %96 = getelementptr inbounds nuw %struct.Edge, ptr %95, i32 0, i32 2
  %97 = load double, ptr %96, align 8, !tbaa !18
  %98 = fdiv double %97, %94
  store double %98, ptr %96, align 8, !tbaa !18
  br label %99

99:                                               ; preds = %86, %73
  %100 = load ptr, ptr %9, align 8, !tbaa !8
  call void @llvm.lifetime.end.p0(i64 8, ptr %9) #4
  call void @llvm.lifetime.end.p0(i64 8, ptr %8) #4
  call void @llvm.lifetime.end.p0(i64 8, ptr %7) #4
  call void @llvm.lifetime.end.p0(i64 8, ptr %6) #4
  call void @llvm.lifetime.end.p0(i64 8, ptr %5) #4
  ret ptr %100
}