; Function Attrs: nounwind uwtable
define ptr @gvbisect(ptr noundef %0, ptr noundef %1) local_unnamed_addr #0 {
  %3 = tail call ptr @getfree(ptr noundef nonnull @efl) #4
  %4 = getelementptr inbounds nuw i8, ptr %3, i64 40
  store ptr %0, ptr %4, align 8, !tbaa !3
  %5 = getelementptr inbounds nuw i8, ptr %3, i64 48
  store ptr %1, ptr %5, align 8, !tbaa !3
  tail call void @ref(ptr noundef %0) #4
  tail call void @ref(ptr noundef %1) #4
  %6 = getelementptr inbounds nuw i8, ptr %3, i64 24
  tail call void @llvm.memset.p0.i64(ptr noundef nonnull align 8 dereferenceable(16) %6, i8 0, i64 16, i1 false)
  %7 = load double, ptr %1, align 8, !tbaa !8
  %8 = load double, ptr %0, align 8, !tbaa !8
  %9 = fsub double %7, %8
  %10 = getelementptr inbounds nuw i8, ptr %1, i64 8
  %11 = load double, ptr %10, align 8, !tbaa !14
  %12 = getelementptr inbounds nuw i8, ptr %0, i64 8
  %13 = load double, ptr %12, align 8, !tbaa !14
  %14 = fsub double %11, %13
  %15 = tail call double @llvm.fabs.f64(double %9)
  %16 = tail call double @llvm.fabs.f64(double %14)
  %17 = fmul double %13, %14
  %18 = tail call double @llvm.fmuladd.f64(double %8, double %9, double %17)
  %19 = fmul double %14, %14
  %20 = tail call double @llvm.fmuladd.f64(double %9, double %9, double %19)
  %21 = tail call double @llvm.fmuladd.f64(double %20, double 5.000000e-01, double %18)
  %22 = getelementptr inbounds nuw i8, ptr %3, i64 16
  %23 = fcmp ogt double %15, %16
  %24 = fdiv double %14, %9
  %25 = fdiv double %9, %14
  %.sink38 = select i1 %23, double 1.000000e+00, double %25
  %.sink = select i1 %23, double %24, double 1.000000e+00
  %.pn = select i1 %23, double %9, double %14
  store double %.sink38, ptr %3, align 8, !tbaa !15
  %26 = getelementptr inbounds nuw i8, ptr %3, i64 8
  store double %.sink, ptr %26, align 8, !tbaa !17
  %storemerge = fdiv double %21, %.pn
  store double %storemerge, ptr %22, align 8, !tbaa !18
  ret ptr %3
}